; Function Attrs: mustprogress uwtable
define noundef double @cvMahalanobis(ptr noundef %0, ptr noundef %1, ptr noundef %2) local_unnamed_addr #3 personality ptr @__gxx_personality_v0 {
  %4 = alloca %"class.cv::_InputArray", align 8
  %5 = alloca %"class.cv::Mat", align 8
  %6 = alloca %"class.cv::_InputArray", align 8
  %7 = alloca %"class.cv::Mat", align 8
  %8 = alloca %"class.cv::_InputArray", align 8
  %9 = alloca %"class.cv::Mat", align 8
  call void @llvm.lifetime.start.p0(i64 24, ptr nonnull %4) #27
  call void @llvm.lifetime.start.p0(i64 96, ptr nonnull %5) #27
  call void @_ZN2cv10cvarrToMatEPKvbbiPNS_10AutoBufferIdLm136EEE(ptr dead_on_unwind nonnull writable sret(%"class.cv::Mat") align 8 %5, ptr noundef %0, i1 noundef zeroext false, i1 noundef zeroext true, i32 noundef 0, ptr noundef null)
  %10 = getelementptr inbounds nuw i8, ptr %4, i64 16
  store i32 0, ptr %10, align 8, !tbaa !388
  %11 = getelementptr inbounds nuw i8, ptr %4, i64 20
  store i32 0, ptr %11, align 4, !tbaa !389
  store i32 16842752, ptr %4, align 8, !tbaa !390
  %12 = getelementptr inbounds nuw i8, ptr %4, i64 8
  store ptr %5, ptr %12, align 8, !tbaa !376
  call void @llvm.lifetime.start.p0(i64 24, ptr nonnull %6) #27
  call void @llvm.lifetime.start.p0(i64 96, ptr nonnull %7) #27
  invoke void @_ZN2cv10cvarrToMatEPKvbbiPNS_10AutoBufferIdLm136EEE(ptr dead_on_unwind nonnull writable sret(%"class.cv::Mat") align 8 %7, ptr noundef %1, i1 noundef zeroext false, i1 noundef zeroext true, i32 noundef 0, ptr noundef null)
          to label %13 unwind label %23

13:                                               ; preds = %3
  %14 = getelementptr inbounds nuw i8, ptr %6, i64 16
  store i32 0, ptr %14, align 8, !tbaa !388
  %15 = getelementptr inbounds nuw i8, ptr %6, i64 20
  store i32 0, ptr %15, align 4, !tbaa !389
  store i32 16842752, ptr %6, align 8, !tbaa !390
  %16 = getelementptr inbounds nuw i8, ptr %6, i64 8
  store ptr %7, ptr %16, align 8, !tbaa !376
  call void @llvm.lifetime.start.p0(i64 24, ptr nonnull %8) #27
  call void @llvm.lifetime.start.p0(i64 96, ptr nonnull %9) #27
  invoke void @_ZN2cv10cvarrToMatEPKvbbiPNS_10AutoBufferIdLm136EEE(ptr dead_on_unwind nonnull writable sret(%"class.cv::Mat") align 8 %9, ptr noundef %2, i1 noundef zeroext false, i1 noundef zeroext true, i32 noundef 0, ptr noundef null)
          to label %17 unwind label %25

17:                                               ; preds = %13
  %18 = getelementptr inbounds nuw i8, ptr %8, i64 16
  store i32 0, ptr %18, align 8, !tbaa !388
  %19 = getelementptr inbounds nuw i8, ptr %8, i64 20
  store i32 0, ptr %19, align 4, !tbaa !389
  store i32 16842752, ptr %8, align 8, !tbaa !390
  %20 = getelementptr inbounds nuw i8, ptr %8, i64 8
  store ptr %9, ptr %20, align 8, !tbaa !376
  %21 = invoke noundef double @_ZN2cv11MahalanobisERKNS_11_InputArrayES2_S2_(ptr noundef nonnull align 8 dereferenceable(24) %4, ptr noundef nonnull align 8 dereferenceable(24) %6, ptr noundef nonnull align 8 dereferenceable(24) %8)
          to label %22 unwind label %27

22:                                               ; preds = %17
  call void @_ZN2cv3MatD1Ev(ptr noundef nonnull align 8 dereferenceable(96) %9) #27
  call void @llvm.lifetime.end.p0(i64 96, ptr nonnull %9) #27
  call void @llvm.lifetime.end.p0(i64 24, ptr nonnull %8) #27
  call void @_ZN2cv3MatD1Ev(ptr noundef nonnull align 8 dereferenceable(96) %7) #27
  call void @llvm.lifetime.end.p0(i64 96, ptr nonnull %7) #27
  call void @llvm.lifetime.end.p0(i64 24, ptr nonnull %6) #27
  call void @_ZN2cv3MatD1Ev(ptr noundef nonnull align 8 dereferenceable(96) %5) #27
  call void @llvm.lifetime.end.p0(i64 96, ptr nonnull %5) #27
  call void @llvm.lifetime.end.p0(i64 24, ptr nonnull %4) #27
  ret double %21

23:                                               ; preds = %3
  %24 = landingpad { ptr, i32 }
          cleanup
  br label %30

25:                                               ; preds = %13
  %26 = landingpad { ptr, i32 }
          cleanup
  br label %29

27:                                               ; preds = %17
  %28 = landingpad { ptr, i32 }
          cleanup
  call void @_ZN2cv3MatD1Ev(ptr noundef nonnull align 8 dereferenceable(96) %9) #27
  br label %29

29:                                               ; preds = %27, %25
  %.pn.pn = phi { ptr, i32 } [ %28, %27 ], [ %26, %25 ]
  call void @llvm.lifetime.end.p0(i64 96, ptr nonnull %9) #27
  call void @llvm.lifetime.end.p0(i64 24, ptr nonnull %8) #27
  call void @_ZN2cv3MatD1Ev(ptr noundef nonnull align 8 dereferenceable(96) %7) #27
  br label %30

30:                                               ; preds = %29, %23
  %.pn.pn.pn.pn = phi { ptr, i32 } [ %.pn.pn, %29 ], [ %24, %23 ]
  call void @llvm.lifetime.end.p0(i64 96, ptr nonnull %7) #27
  call void @llvm.lifetime.end.p0(i64 24, ptr nonnull %6) #27
  call void @_ZN2cv3MatD1Ev(ptr noundef nonnull align 8 dereferenceable(96) %5) #27
  call void @llvm.lifetime.end.p0(i64 96, ptr nonnull %5) #27
  call void @llvm.lifetime.end.p0(i64 24, ptr nonnull %4) #27
  resume { ptr, i32 } %.pn.pn.pn.pn
}